target datalayout = "e-m:e-p270:32:32-p271:32:32-p272:64:64-i64:64-i128:128-f80:128-n8:16:32:64-S128"
target triple = "x86_64-pc-linux-gnu"

%struct.gmx_ana_selvalue_t = type { i32, i32, %union.anon, i32 }
%union.anon = type { ptr }
%struct.gmx_ana_pos_t = type <{ ptr, ptr, ptr, %struct.gmx_ana_indexmap_t, i32, [4 x i8] }>
%struct.gmx_ana_indexmap_t = type { i32, ptr, ptr, %struct.t_blocka, ptr, %struct.t_blocka, i8 }
%struct.t_blocka = type { i32, ptr, i32, ptr, i32, i32 }

@.str = private unnamed_addr constant [11 x i8] c"val->u.ptr\00", align 1
@.str.1 = private unnamed_addr constant [128 x i8] c"generated/home/dtcxzyw/WorkSpace/Projects/compilers/llvm-opt-benchmark/bench/gromacs/gromacs/src/gromacs/selection/selvalue.cpp\00", align 1

; Function Attrs: inlinehint mustprogress uwtable
define internal void @_ZL14gmx_sfree_implIvEvPKcS1_iPT_(ptr noundef %0, ptr noundef %1, i32 noundef %2, ptr noundef %3) #4 {
  %5 = alloca ptr, align 8
  %6 = alloca ptr, align 8
  %7 = alloca i32, align 4
  %8 = alloca ptr, align 8
  store ptr %0, ptr %5, align 8, !tbaa !16
  store ptr %1, ptr %6, align 8, !tbaa !16
  store i32 %2, ptr %7, align 4, !tbaa !18
  store ptr %3, ptr %8, align 8, !tbaa !19
  %9 = load ptr, ptr %5, align 8, !tbaa !16
  %10 = load ptr, ptr %6, align 8, !tbaa !16
  %11 = load i32, ptr %7, align 4, !tbaa !18
  %12 = load ptr, ptr %8, align 8, !tbaa !19
  call void @_Z9save_freePKcS0_iPv(ptr noundef %9, ptr noundef %10, i32 noundef %11, ptr noundef %12)
  ret void
}

; Function Attrs: mustprogress uwtable
define void @_Z18_gmx_selvalue_freeP18gmx_ana_selvalue_t(ptr noundef %0) #1 {
  %2 = alloca ptr, align 8
  store ptr %0, ptr %2, align 8, !tbaa !4
  %3 = load ptr, ptr %2, align 8, !tbaa !4
  %4 = getelementptr inbounds nuw %struct.gmx_ana_selvalue_t, ptr %3, i32 0, i32 3
  %5 = load i32, ptr %4, align 8, !tbaa !14
  %6 = icmp sgt i32 %5, 0
  br i1 %6, label %7, label %35

7:                                                ; preds = %1
  %8 = load ptr, ptr %2, align 8, !tbaa !4
  %9 = getelementptr inbounds nuw %struct.gmx_ana_selvalue_t, ptr %8, i32 0, i32 0
  %10 = load i32, ptr %9, align 8, !tbaa !15
  %11 = icmp eq i32 %10, 4
  br i1 %11, label %12, label %30

12:                                               ; preds = %7
  %13 = load ptr, ptr %2, align 8, !tbaa !4
  %14 = getelementptr inbounds nuw %struct.gmx_ana_selvalue_t, ptr %13, i32 0, i32 2
  %15 = load ptr, ptr %14, align 8, !tbaa !13
  %16 = icmp eq ptr %15, null
  br i1 %16, label %29, label %17

17:                                               ; preds = %12
  %18 = getelementptr inbounds i8, ptr %15, i64 -8
  %19 = load i64, ptr %18, align 8
  %20 = getelementptr inbounds %struct.gmx_ana_pos_t, ptr %15, i64 %19
  %21 = icmp eq ptr %15, %20
  br i1 %21, label %26, label %22

22:                                               ; preds = %22, %17
  %23 = phi ptr [ %20, %17 ], [ %24, %22 ]
  %24 = getelementptr inbounds %struct.gmx_ana_pos_t, ptr %23, i64 -1
  call void @_ZN13gmx_ana_pos_tD1Ev(ptr noundef nonnull align 8 dereferenceable(148) %24) #10
  %25 = icmp eq ptr %24, %15
  br i1 %25, label %26, label %22

26:                                               ; preds = %22, %17
  %27 = mul i64 152, %19
  %28 = add i64 %27, 8
  call void @_ZdaPvm(ptr noundef %18, i64 noundef %28) #11
  br label %29

29:                                               ; preds = %26, %12
  br label %34

30:                                               ; preds = %7
  %31 = load ptr, ptr %2, align 8, !tbaa !4
  %32 = getelementptr inbounds nuw %struct.gmx_ana_selvalue_t, ptr %31, i32 0, i32 2
  %33 = load ptr, ptr %32, align 8, !tbaa !13
  call void @_ZL14gmx_sfree_implIvEvPKcS1_iPT_(ptr noundef @.str, ptr noundef @.str.1, i32 noundef 67, ptr noundef %33)
  br label %34

34:                                               ; preds = %30, %29
  br label %35

35:                                               ; preds = %34, %1
  %36 = load ptr, ptr %2, align 8, !tbaa !4
  %37 = getelementptr inbounds nuw %struct.gmx_ana_selvalue_t, ptr %36, i32 0, i32 2
  store ptr null, ptr %37, align 8, !tbaa !13
  %38 = load ptr, ptr %2, align 8, !tbaa !4
  %39 = getelementptr inbounds nuw %struct.gmx_ana_selvalue_t, ptr %38, i32 0, i32 3
  store i32 0, ptr %39, align 8, !tbaa !14
  ret void
}